#include <math.h>
#include <stdio.h>
#include <stdlib.h>
#include <string.h>


int main()
{
	char SourceStr[100] = {'\0'};
	char ToReplaceStr[100] = {'\0'};
	char Replacement[100] = {'\0'};
	char Str[100][100] = {'\0'};
	int index = 0;
	int WordIndex = 0;
	int LetterIndex = 0;
	int i;
	
	gets(SourceStr);
	scanf("%s",ToReplaceStr);
	scanf("%s",Replacement);
	while (SourceStr[index] != '\0')
	{
		while((SourceStr[index] != ' ') && (SourceStr[index] != '\0'))
		{
			Str[WordIndex][LetterIndex] = SourceStr[index];
			//printf("%c",SourseStr[index]);
			//printf("\tWordIndex = %d\tIndex = %d\n", WordIndex, index);
			LetterIndex++;
			index++;
		}
		//printf("Word %d is %s\n", WordIndex, Str[WordIndex]);
		LetterIndex = 0;
		WordIndex++;
		index++;
	}
	for (i = 0; i < WordIndex; i++ )
	{	
		if (!strcmp(Str[i], ToReplaceStr))
		{
			strcpy(Str[i],Replacement);
		}
	}
	for (i = 0; i < WordIndex - 1; i++)
	{
		printf("%s ",Str[i]);
	}
	printf("%s", Str[WordIndex - 1]);
	return 0;
}